target datalayout = "e-m:e-p270:32:32-p271:32:32-p272:64:64-i64:64-i128:128-f80:128-n8:16:32:64-S128"
target triple = "x86_64-unknown-linux-gnu"

; Function Attrs: mustprogress nounwind uwtable
define noundef i32 @_ZN8facebook5velox4type6Parser12yytranslate_Ei(i32 noundef %t) #4 align 2 {
entry:
  %retval = alloca i32, align 4
  %t.addr = alloca i32, align 4
  %code_max = alloca i32, align 4
  store i32 %t, ptr %t.addr, align 4
  store i32 269, ptr %code_max, align 4
  %0 = load i32, ptr %t.addr, align 4
  %cmp = icmp sle i32 %0, 0
  br i1 %cmp, label %if.then, label %if.else

if.then:                                          ; preds = %entry
  store i32 0, ptr %retval, align 4
  br label %return

if.else:                                          ; preds = %entry
  %1 = load i32, ptr %t.addr, align 4
  %cmp1 = icmp sle i32 %1, 269
  br i1 %cmp1, label %if.then2, label %if.else3

if.then2:                                         ; preds = %if.else
  %2 = load i32, ptr %t.addr, align 4
  %idxprom = sext i32 %2 to i64
  %arrayidx = getelementptr inbounds [270 x i8], ptr @_ZZN8facebook5velox4type6Parser12yytranslate_EiE15translate_table, i64 0, i64 %idxprom
  %3 = load i8, ptr %arrayidx, align 1
  %conv = sext i8 %3 to i32
  store i32 %conv, ptr %retval, align 4
  br label %return

if.else3:                                         ; preds = %if.else
  store i32 2, ptr %retval, align 4
  br label %return

return:                                           ; preds = %if.else3, %if.then2, %if.then
  %4 = load i32, ptr %retval, align 4
  ret i32 %4
}