; Function Attrs: mustprogress nofree norecurse nosync nounwind willreturn memory(none) uwtable
define noundef i32 @_ZN8facebook5velox4type6Parser12yytranslate_Ei(i32 noundef %t) local_unnamed_addr #7 align 2 {
entry:
  %cmp = icmp slt i32 %t, 1
  br i1 %cmp, label %return, label %if.else

if.else:                                          ; preds = %entry
  %cmp1 = icmp ult i32 %t, 270
  br i1 %cmp1, label %if.then2, label %return

if.then2:                                         ; preds = %if.else
  %idxprom = zext nneg i32 %t to i64
  %arrayidx = getelementptr inbounds [270 x i8], ptr @_ZZN8facebook5velox4type6Parser12yytranslate_EiE15translate_table, i64 0, i64 %idxprom
  %0 = load i8, ptr %arrayidx, align 1
  %conv = sext i8 %0 to i32
  br label %return

return:                                           ; preds = %if.else, %entry, %if.then2
  %retval.0 = phi i32 [ %conv, %if.then2 ], [ 0, %entry ], [ 2, %if.else ]
  ret i32 %retval.0
}